target datalayout = "e-m:e-p270:32:32-p271:32:32-p272:64:64-i64:64-i128:128-f80:128-n8:16:32:64-S128"
target triple = "x86_64-unknown-linux-gnu"

%class.symbol = type { ptr }
%class.special_relations_decl_plugin = type <{ %class.decl_plugin.base, [4 x i8], %class.symbol, %class.symbol, %class.symbol, %class.symbol, %class.symbol, %class.symbol, i8, [7 x i8] }>
%class.decl_plugin.base = type <{ ptr, ptr, i32 }>
%class.decl_plugin = type <{ ptr, ptr, i32, [4 x i8] }>

@.str = private unnamed_addr constant [13 x i8] c"linear-order\00", align 1
@.str.1 = private unnamed_addr constant [14 x i8] c"partial-order\00", align 1
@.str.2 = private unnamed_addr constant [23 x i8] c"piecewise-linear-order\00", align 1
@.str.3 = private unnamed_addr constant [11 x i8] c"tree-order\00", align 1
@.str.4 = private unnamed_addr constant [19 x i8] c"transitive-closure\00", align 1
@.str.5 = private unnamed_addr constant [6 x i8] c"ac-op\00", align 1
@_ZTV11decl_plugin = external unnamed_addr constant { [23 x ptr] }, align 8

; Function Attrs: mustprogress nounwind uwtable
define linkonce_odr hidden void @_ZN11decl_pluginD2Ev(ptr noundef nonnull align 8 dereferenceable(20) %this) unnamed_addr #5 comdat align 2 {
entry:
  %this.addr = alloca ptr, align 8
  store ptr %this, ptr %this.addr, align 8
  ret void
}

; Function Attrs: mustprogress nounwind uwtable
define linkonce_odr hidden void @_ZN11decl_pluginC2Ev(ptr noundef nonnull align 8 dereferenceable(20) %this) unnamed_addr #5 comdat align 2 {
entry:
  %this.addr = alloca ptr, align 8
  store ptr %this, ptr %this.addr, align 8
  %this1 = load ptr, ptr %this.addr, align 8
  store ptr getelementptr inbounds ({ [23 x ptr] }, ptr @_ZTV11decl_plugin, i32 0, i32 0, i32 2), ptr %this1, align 8
  %m_manager = getelementptr inbounds %class.decl_plugin, ptr %this1, i32 0, i32 1
  store ptr null, ptr %m_manager, align 8
  %m_family_id = getelementptr inbounds %class.decl_plugin, ptr %this1, i32 0, i32 2
  store i32 -1, ptr %m_family_id, align 8
  ret void
}

; Function Attrs: mustprogress uwtable
define hidden void @_ZN29special_relations_decl_pluginC2Ev(ptr noundef nonnull align 8 dereferenceable(73) %this) unnamed_addr #4 align 2 personality ptr @__gxx_personality_v0 {
entry:
  %this.addr = alloca ptr, align 8
  %exn.slot = alloca ptr, align 8
  %ehselector.slot = alloca i32, align 4
  store ptr %this, ptr %this.addr, align 8
  %this1 = load ptr, ptr %this.addr, align 8
  call void @_ZN11decl_pluginC2Ev(ptr noundef nonnull align 8 dereferenceable(20) %this1) #3
  store ptr getelementptr inbounds ({ [23 x ptr] }, ptr @_ZTV29special_relations_decl_plugin, i32 0, i32 0, i32 2), ptr %this1, align 8
  %m_lo = getelementptr inbounds %class.special_relations_decl_plugin, ptr %this1, i32 0, i32 2
  invoke void @_ZN6symbolC1EPKc(ptr noundef nonnull align 8 dereferenceable(8) %m_lo, ptr noundef @.str)
          to label %invoke.cont unwind label %lpad

invoke.cont:                                      ; preds = %entry
  %m_po = getelementptr inbounds %class.special_relations_decl_plugin, ptr %this1, i32 0, i32 3
  invoke void @_ZN6symbolC1EPKc(ptr noundef nonnull align 8 dereferenceable(8) %m_po, ptr noundef @.str.1)
          to label %invoke.cont2 unwind label %lpad

invoke.cont2:                                     ; preds = %invoke.cont
  %m_plo = getelementptr inbounds %class.special_relations_decl_plugin, ptr %this1, i32 0, i32 4
  invoke void @_ZN6symbolC1EPKc(ptr noundef nonnull align 8 dereferenceable(8) %m_plo, ptr noundef @.str.2)
          to label %invoke.cont3 unwind label %lpad

invoke.cont3:                                     ; preds = %invoke.cont2
  %m_to = getelementptr inbounds %class.special_relations_decl_plugin, ptr %this1, i32 0, i32 5
  invoke void @_ZN6symbolC1EPKc(ptr noundef nonnull align 8 dereferenceable(8) %m_to, ptr noundef @.str.3)
          to label %invoke.cont4 unwind label %lpad

invoke.cont4:                                     ; preds = %invoke.cont3
  %m_tc = getelementptr inbounds %class.special_relations_decl_plugin, ptr %this1, i32 0, i32 6
  invoke void @_ZN6symbolC1EPKc(ptr noundef nonnull align 8 dereferenceable(8) %m_tc, ptr noundef @.str.4)
          to label %invoke.cont5 unwind label %lpad

invoke.cont5:                                     ; preds = %invoke.cont4
  %m_ac = getelementptr inbounds %class.special_relations_decl_plugin, ptr %this1, i32 0, i32 7
  invoke void @_ZN6symbolC1EPKc(ptr noundef nonnull align 8 dereferenceable(8) %m_ac, ptr noundef @.str.5)
          to label %invoke.cont6 unwind label %lpad

invoke.cont6:                                     ; preds = %invoke.cont5
  %m_has_special_relation = getelementptr inbounds %class.special_relations_decl_plugin, ptr %this1, i32 0, i32 8
  store i8 0, ptr %m_has_special_relation, align 8
  ret void

lpad:                                             ; preds = %invoke.cont5, %invoke.cont4, %invoke.cont3, %invoke.cont2, %invoke.cont, %entry
  %0 = landingpad { ptr, i32 }
          cleanup
  %1 = extractvalue { ptr, i32 } %0, 0
  store ptr %1, ptr %exn.slot, align 8
  %2 = extractvalue { ptr, i32 } %0, 1
  store i32 %2, ptr %ehselector.slot, align 4
  call void @_ZN11decl_pluginD2Ev(ptr noundef nonnull align 8 dereferenceable(20) %this1) #3
  br label %eh.resume

eh.resume:                                        ; preds = %lpad
  %exn = load ptr, ptr %exn.slot, align 8
  %sel = load i32, ptr %ehselector.slot, align 4
  %lpad.val = insertvalue { ptr, i32 } poison, ptr %exn, 0
  %lpad.val7 = insertvalue { ptr, i32 } %lpad.val, i32 %sel, 1
  resume { ptr, i32 } %lpad.val7
}