; Function Attrs: mustprogress uwtable
define hidden void @_ZN29special_relations_decl_pluginC2Ev(ptr noundef nonnull align 8 dereferenceable(73) %this) unnamed_addr #3 align 2 personality ptr @__gxx_personality_v0 {
entry:
  %m_manager.i = getelementptr inbounds i8, ptr %this, i64 8
  store ptr null, ptr %m_manager.i, align 8
  %m_family_id.i = getelementptr inbounds i8, ptr %this, i64 16
  store i32 -1, ptr %m_family_id.i, align 8
  store ptr getelementptr inbounds ({ [23 x ptr] }, ptr @_ZTV29special_relations_decl_plugin, i64 0, i32 0, i64 2), ptr %this, align 8
  %m_lo = getelementptr inbounds i8, ptr %this, i64 24
  tail call void @_ZN6symbolC1EPKc(ptr noundef nonnull align 8 dereferenceable(8) %m_lo, ptr noundef nonnull @.str)
  %m_po = getelementptr inbounds i8, ptr %this, i64 32
  tail call void @_ZN6symbolC1EPKc(ptr noundef nonnull align 8 dereferenceable(8) %m_po, ptr noundef nonnull @.str.1)
  %m_plo = getelementptr inbounds i8, ptr %this, i64 40
  tail call void @_ZN6symbolC1EPKc(ptr noundef nonnull align 8 dereferenceable(8) %m_plo, ptr noundef nonnull @.str.2)
  %m_to = getelementptr inbounds i8, ptr %this, i64 48
  tail call void @_ZN6symbolC1EPKc(ptr noundef nonnull align 8 dereferenceable(8) %m_to, ptr noundef nonnull @.str.3)
  %m_tc = getelementptr inbounds i8, ptr %this, i64 56
  tail call void @_ZN6symbolC1EPKc(ptr noundef nonnull align 8 dereferenceable(8) %m_tc, ptr noundef nonnull @.str.4)
  %m_ac = getelementptr inbounds i8, ptr %this, i64 64
  tail call void @_ZN6symbolC1EPKc(ptr noundef nonnull align 8 dereferenceable(8) %m_ac, ptr noundef nonnull @.str.5)
  %m_has_special_relation = getelementptr inbounds i8, ptr %this, i64 72
  store i8 0, ptr %m_has_special_relation, align 8
  ret void
}